target datalayout = "e-m:e-p270:32:32-p271:32:32-p272:64:64-i64:64-i128:128-f80:128-n8:16:32:64-S128"
target triple = "x86_64-pc-linux-gnu"

%struct.expert_field = type { i32, i32 }
%struct.MessageHeader = type { [4 x i8], %struct.Version, i8, i8, i32, i32, i32, ptr }
%struct.Version = type { i8, i8 }

@hf_GIAS_DataModelMgr_get_associations_return_loop = internal global i32 0, align 4
@hf_GIAS_DataModelMgr_get_associations_properties_loop = internal global i32 0, align 4
@hf_GIAS_Association_name = internal global i32 0, align 4
@hf_GIAS_Association_view_a = internal global i32 0, align 4
@hf_GIAS_Association_view_b = internal global i32 0, align 4
@hf_GIAS_Association_description = internal global i32 0, align 4
@hf_GIAS_Association_card = internal global i32 0, align 4
@hf_GIAS_Association_attribute_info_loop = internal global i32 0, align 4
@hf_UCO_NameValue_aname = internal global i32 0, align 4
@ei_gias_unknown_giop_msg = internal global %struct.expert_field zeroinitializer, align 4
@ei_gias_unknown_exception = internal global %struct.expert_field zeroinitializer, align 4
@ett_giop_struct = internal global i32 0, align 4
@ett_giop_sequence = internal global i32 0, align 4
@boundary = internal global i32 12, align 4
@.str.826 = private unnamed_addr constant [21 x i8] c"Unknown exception %d\00", align 1
@.str.827 = private unnamed_addr constant [24 x i8] c"Unknown GIOP message %d\00", align 1
@.str.855 = private unnamed_addr constant [21 x i8] c"struct UCO_NameValue\00", align 1
@.str.895 = private unnamed_addr constant [55 x i8] c"sequence GIAS_DataModelMgr_get_associations_properties\00", align 1
@.str.896 = private unnamed_addr constant [51 x i8] c"sequence GIAS_DataModelMgr_get_associations_return\00", align 1
@.str.897 = private unnamed_addr constant [24 x i8] c"struct GIAS_Association\00", align 1
@.str.898 = private unnamed_addr constant [41 x i8] c"sequence GIAS_Association_attribute_info\00", align 1
@.str.899 = private unnamed_addr constant [33 x i8] c"struct GIAS_AttributeInformation\00", align 1

; Function Attrs: null_pointer_is_valid sspstrong uwtable
define internal void @decode_GIAS_Association_st(ptr noundef %0, ptr noundef %1, ptr noundef %2, ptr noundef %3, ptr noundef %4, ptr noundef %5, ptr noundef %6, i1 noundef zeroext %7) #0 {
  %9 = alloca ptr, align 8
  %10 = alloca ptr, align 8
  %11 = alloca ptr, align 8
  %12 = alloca ptr, align 8
  %13 = alloca ptr, align 8
  %14 = alloca ptr, align 8
  %15 = alloca ptr, align 8
  %16 = alloca i8, align 1
  %17 = alloca i32, align 4
  %18 = alloca i32, align 4
  %19 = alloca i32, align 4
  %20 = alloca ptr, align 8
  %21 = alloca ptr, align 8
  store ptr %0, ptr %9, align 8
  store ptr %1, ptr %10, align 8
  store ptr %2, ptr %11, align 8
  store ptr %3, ptr %12, align 8
  store ptr %4, ptr %13, align 8
  store ptr %5, ptr %14, align 8
  store ptr %6, ptr %15, align 8
  %22 = zext i1 %7 to i8
  store i8 %22, ptr %16, align 1
  call void @llvm.lifetime.start.p0(i64 4, ptr %17) #6
  call void @llvm.lifetime.start.p0(i64 4, ptr %18) #6
  call void @llvm.lifetime.start.p0(i64 4, ptr %19) #6
  %23 = load ptr, ptr %11, align 8
  %24 = load ptr, ptr %9, align 8
  %25 = load ptr, ptr %13, align 8
  %26 = load i8, ptr %16, align 1, !range !6, !noundef !7
  %27 = trunc i8 %26 to i1
  %28 = load i32, ptr @boundary, align 4
  %29 = load i32, ptr @hf_GIAS_Association_name, align 4
  call void @giop_add_CDR_string(ptr noundef %23, ptr noundef %24, ptr noundef %25, i1 noundef zeroext %27, i32 noundef %28, i32 noundef %29)
  %30 = load ptr, ptr %11, align 8
  %31 = load ptr, ptr %9, align 8
  %32 = load ptr, ptr %13, align 8
  %33 = load i8, ptr %16, align 1, !range !6, !noundef !7
  %34 = trunc i8 %33 to i1
  %35 = load i32, ptr @boundary, align 4
  %36 = load i32, ptr @hf_GIAS_Association_view_a, align 4
  call void @giop_add_CDR_string(ptr noundef %30, ptr noundef %31, ptr noundef %32, i1 noundef zeroext %34, i32 noundef %35, i32 noundef %36)
  %37 = load ptr, ptr %11, align 8
  %38 = load ptr, ptr %9, align 8
  %39 = load ptr, ptr %13, align 8
  %40 = load i8, ptr %16, align 1, !range !6, !noundef !7
  %41 = trunc i8 %40 to i1
  %42 = load i32, ptr @boundary, align 4
  %43 = load i32, ptr @hf_GIAS_Association_view_b, align 4
  call void @giop_add_CDR_string(ptr noundef %37, ptr noundef %38, ptr noundef %39, i1 noundef zeroext %41, i32 noundef %42, i32 noundef %43)
  %44 = load ptr, ptr %11, align 8
  %45 = load ptr, ptr %9, align 8
  %46 = load ptr, ptr %13, align 8
  %47 = load i8, ptr %16, align 1, !range !6, !noundef !7
  %48 = trunc i8 %47 to i1
  %49 = load i32, ptr @boundary, align 4
  %50 = load i32, ptr @hf_GIAS_Association_description, align 4
  call void @giop_add_CDR_string(ptr noundef %44, ptr noundef %45, ptr noundef %46, i1 noundef zeroext %48, i32 noundef %49, i32 noundef %50)
  %51 = load ptr, ptr %9, align 8
  %52 = load ptr, ptr %13, align 8
  %53 = load i8, ptr %16, align 1, !range !6, !noundef !7
  %54 = trunc i8 %53 to i1
  %55 = load i32, ptr @boundary, align 4
  %56 = call i32 @get_CDR_enum(ptr noundef %51, ptr noundef %52, i1 noundef zeroext %54, i32 noundef %55)
  store i32 %56, ptr %17, align 4
  %57 = load ptr, ptr %11, align 8
  %58 = load i32, ptr @hf_GIAS_Association_card, align 4
  %59 = load ptr, ptr %9, align 8
  %60 = load ptr, ptr %13, align 8
  %61 = load i32, ptr %60, align 4
  %62 = sub i32 %61, 4
  %63 = load i32, ptr %17, align 4
  %64 = call ptr @proto_tree_add_uint(ptr noundef %57, i32 noundef %58, ptr noundef %59, i32 noundef %62, i32 noundef 4, i32 noundef %63)
  %65 = load ptr, ptr %9, align 8
  %66 = load ptr, ptr %13, align 8
  %67 = load i8, ptr %16, align 1, !range !6, !noundef !7
  %68 = trunc i8 %67 to i1
  %69 = load i32, ptr @boundary, align 4
  %70 = call i32 @get_CDR_ulong(ptr noundef %65, ptr noundef %66, i1 noundef zeroext %68, i32 noundef %69)
  store i32 %70, ptr %18, align 4
  %71 = load ptr, ptr %11, align 8
  %72 = load i32, ptr @hf_GIAS_Association_attribute_info_loop, align 4
  %73 = load ptr, ptr %9, align 8
  %74 = load ptr, ptr %13, align 8
  %75 = load i32, ptr %74, align 4
  %76 = sub i32 %75, 4
  %77 = load i32, ptr %18, align 4
  %78 = call ptr @proto_tree_add_uint(ptr noundef %71, i32 noundef %72, ptr noundef %73, i32 noundef %76, i32 noundef 4, i32 noundef %77)
  call void @llvm.lifetime.start.p0(i64 8, ptr %20) #6
  %79 = load ptr, ptr %11, align 8
  store ptr %79, ptr %20, align 8
  %80 = load ptr, ptr %11, align 8
  %81 = load ptr, ptr %9, align 8
  %82 = load ptr, ptr %13, align 8
  %83 = load i32, ptr %82, align 4
  %84 = load i32, ptr @ett_giop_sequence, align 4
  %85 = call ptr @proto_tree_add_subtree(ptr noundef %80, ptr noundef %81, i32 noundef %83, i32 noundef -1, i32 noundef %84, ptr noundef null, ptr noundef @.str.898)
  store ptr %85, ptr %11, align 8
  store i32 0, ptr %19, align 4
  br label %86

86:                                               ; preds = %106, %8
  %87 = load i32, ptr %19, align 4
  %88 = load i32, ptr %18, align 4
  %89 = icmp ult i32 %87, %88
  br i1 %89, label %90, label %109

90:                                               ; preds = %86
  call void @llvm.lifetime.start.p0(i64 8, ptr %21) #6
  %91 = load ptr, ptr %11, align 8
  %92 = load ptr, ptr %9, align 8
  %93 = load ptr, ptr %13, align 8
  %94 = load i32, ptr %93, align 4
  %95 = load i32, ptr @ett_giop_struct, align 4
  %96 = call ptr @proto_tree_add_subtree(ptr noundef %91, ptr noundef %92, i32 noundef %94, i32 noundef -1, i32 noundef %95, ptr noundef null, ptr noundef @.str.899)
  store ptr %96, ptr %21, align 8
  %97 = load ptr, ptr %9, align 8
  %98 = load ptr, ptr %10, align 8
  %99 = load ptr, ptr %21, align 8
  %100 = load ptr, ptr %12, align 8
  %101 = load ptr, ptr %13, align 8
  %102 = load ptr, ptr %14, align 8
  %103 = load ptr, ptr %15, align 8
  %104 = load i8, ptr %16, align 1, !range !6, !noundef !7
  %105 = trunc i8 %104 to i1
  call void @decode_GIAS_AttributeInformation_st(ptr noundef %97, ptr noundef %98, ptr noundef %99, ptr noundef %100, ptr noundef %101, ptr noundef %102, ptr noundef %103, i1 noundef zeroext %105)
  call void @llvm.lifetime.end.p0(i64 8, ptr %21) #6
  br label %106

106:                                              ; preds = %90
  %107 = load i32, ptr %19, align 4
  %108 = add i32 %107, 1
  store i32 %108, ptr %19, align 4
  br label %86, !llvm.loop !84

109:                                              ; preds = %86
  %110 = load ptr, ptr %20, align 8
  store ptr %110, ptr %11, align 8
  call void @llvm.lifetime.end.p0(i64 8, ptr %20) #6
  call void @llvm.lifetime.end.p0(i64 4, ptr %19) #6
  call void @llvm.lifetime.end.p0(i64 4, ptr %18) #6
  call void @llvm.lifetime.end.p0(i64 4, ptr %17) #6
  ret void
}

; Function Attrs: null_pointer_is_valid sspstrong uwtable
define internal void @decode_UCO_NameValue_st(ptr noundef %0, ptr noundef %1, ptr noundef %2, ptr noundef %3, ptr noundef %4, ptr noundef %5, ptr noundef %6, i1 noundef zeroext %7) #0 {
  %9 = alloca ptr, align 8
  %10 = alloca ptr, align 8
  %11 = alloca ptr, align 8
  %12 = alloca ptr, align 8
  %13 = alloca ptr, align 8
  %14 = alloca ptr, align 8
  %15 = alloca ptr, align 8
  %16 = alloca i8, align 1
  store ptr %0, ptr %9, align 8
  store ptr %1, ptr %10, align 8
  store ptr %2, ptr %11, align 8
  store ptr %3, ptr %12, align 8
  store ptr %4, ptr %13, align 8
  store ptr %5, ptr %14, align 8
  store ptr %6, ptr %15, align 8
  %17 = zext i1 %7 to i8
  store i8 %17, ptr %16, align 1
  %18 = load ptr, ptr %11, align 8
  %19 = load ptr, ptr %9, align 8
  %20 = load ptr, ptr %13, align 8
  %21 = load i8, ptr %16, align 1, !range !6, !noundef !7
  %22 = trunc i8 %21 to i1
  %23 = load i32, ptr @boundary, align 4
  %24 = load i32, ptr @hf_UCO_NameValue_aname, align 4
  call void @giop_add_CDR_string(ptr noundef %18, ptr noundef %19, ptr noundef %20, i1 noundef zeroext %22, i32 noundef %23, i32 noundef %24)
  %25 = load ptr, ptr %9, align 8
  %26 = load ptr, ptr %10, align 8
  %27 = load ptr, ptr %11, align 8
  %28 = load ptr, ptr %12, align 8
  %29 = load ptr, ptr %13, align 8
  %30 = load i8, ptr %16, align 1, !range !6, !noundef !7
  %31 = trunc i8 %30 to i1
  %32 = load i32, ptr @boundary, align 4
  %33 = load ptr, ptr %14, align 8
  call void @get_CDR_any(ptr noundef %25, ptr noundef %26, ptr noundef %27, ptr noundef %28, ptr noundef %29, i1 noundef zeroext %31, i32 noundef %32, ptr noundef %33)
  ret void
}

; Function Attrs: null_pointer_is_valid sspstrong uwtable
define internal void @decode_GIAS_DataModelMgr_get_associations(ptr noundef %0, ptr noundef %1, ptr noundef %2, ptr noundef %3, ptr noundef %4, ptr noundef %5, ptr noundef %6, i1 noundef zeroext %7) #0 {
  %9 = alloca ptr, align 8
  %10 = alloca ptr, align 8
  %11 = alloca ptr, align 8
  %12 = alloca ptr, align 8
  %13 = alloca ptr, align 8
  %14 = alloca ptr, align 8
  %15 = alloca ptr, align 8
  %16 = alloca i8, align 1
  %17 = alloca i32, align 4
  %18 = alloca i32, align 4
  %19 = alloca i32, align 4
  %20 = alloca i32, align 4
  %21 = alloca ptr, align 8
  %22 = alloca ptr, align 8
  %23 = alloca ptr, align 8
  %24 = alloca ptr, align 8
  store ptr %0, ptr %9, align 8
  store ptr %1, ptr %10, align 8
  store ptr %2, ptr %11, align 8
  store ptr %3, ptr %12, align 8
  store ptr %4, ptr %13, align 8
  store ptr %5, ptr %14, align 8
  store ptr %6, ptr %15, align 8
  %25 = zext i1 %7 to i8
  store i8 %25, ptr %16, align 1
  call void @llvm.lifetime.start.p0(i64 4, ptr %17) #6
  call void @llvm.lifetime.start.p0(i64 4, ptr %18) #6
  call void @llvm.lifetime.start.p0(i64 4, ptr %19) #6
  call void @llvm.lifetime.start.p0(i64 4, ptr %20) #6
  %26 = load ptr, ptr %14, align 8
  %27 = getelementptr inbounds nuw %struct.MessageHeader, ptr %26, i32 0, i32 3
  %28 = load i8, ptr %27, align 1
  %29 = zext i8 %28 to i32
  switch i32 %29, label %136 [
    i32 0, label %30
    i32 1, label %77
  ]

30:                                               ; preds = %8
  %31 = load ptr, ptr %9, align 8
  %32 = load ptr, ptr %13, align 8
  %33 = load i8, ptr %16, align 1, !range !6, !noundef !7
  %34 = trunc i8 %33 to i1
  %35 = load i32, ptr @boundary, align 4
  %36 = call i32 @get_CDR_ulong(ptr noundef %31, ptr noundef %32, i1 noundef zeroext %34, i32 noundef %35)
  store i32 %36, ptr %17, align 4
  %37 = load ptr, ptr %11, align 8
  %38 = load i32, ptr @hf_GIAS_DataModelMgr_get_associations_properties_loop, align 4
  %39 = load ptr, ptr %9, align 8
  %40 = load ptr, ptr %13, align 8
  %41 = load i32, ptr %40, align 4
  %42 = sub i32 %41, 4
  %43 = load i32, ptr %17, align 4
  %44 = call ptr @proto_tree_add_uint(ptr noundef %37, i32 noundef %38, ptr noundef %39, i32 noundef %42, i32 noundef 4, i32 noundef %43)
  call void @llvm.lifetime.start.p0(i64 8, ptr %21) #6
  %45 = load ptr, ptr %11, align 8
  store ptr %45, ptr %21, align 8
  %46 = load ptr, ptr %11, align 8
  %47 = load ptr, ptr %9, align 8
  %48 = load ptr, ptr %13, align 8
  %49 = load i32, ptr %48, align 4
  %50 = load i32, ptr @ett_giop_sequence, align 4
  %51 = call ptr @proto_tree_add_subtree(ptr noundef %46, ptr noundef %47, i32 noundef %49, i32 noundef -1, i32 noundef %50, ptr noundef null, ptr noundef @.str.895)
  store ptr %51, ptr %11, align 8
  store i32 0, ptr %18, align 4
  br label %52

52:                                               ; preds = %72, %30
  %53 = load i32, ptr %18, align 4
  %54 = load i32, ptr %17, align 4
  %55 = icmp ult i32 %53, %54
  br i1 %55, label %56, label %75

56:                                               ; preds = %52
  call void @llvm.lifetime.start.p0(i64 8, ptr %22) #6
  %57 = load ptr, ptr %11, align 8
  %58 = load ptr, ptr %9, align 8
  %59 = load ptr, ptr %13, align 8
  %60 = load i32, ptr %59, align 4
  %61 = load i32, ptr @ett_giop_struct, align 4
  %62 = call ptr @proto_tree_add_subtree(ptr noundef %57, ptr noundef %58, i32 noundef %60, i32 noundef -1, i32 noundef %61, ptr noundef null, ptr noundef @.str.855)
  store ptr %62, ptr %22, align 8
  %63 = load ptr, ptr %9, align 8
  %64 = load ptr, ptr %10, align 8
  %65 = load ptr, ptr %22, align 8
  %66 = load ptr, ptr %12, align 8
  %67 = load ptr, ptr %13, align 8
  %68 = load ptr, ptr %14, align 8
  %69 = load ptr, ptr %15, align 8
  %70 = load i8, ptr %16, align 1, !range !6, !noundef !7
  %71 = trunc i8 %70 to i1
  call void @decode_UCO_NameValue_st(ptr noundef %63, ptr noundef %64, ptr noundef %65, ptr noundef %66, ptr noundef %67, ptr noundef %68, ptr noundef %69, i1 noundef zeroext %71)
  call void @llvm.lifetime.end.p0(i64 8, ptr %22) #6
  br label %72

72:                                               ; preds = %56
  %73 = load i32, ptr %18, align 4
  %74 = add i32 %73, 1
  store i32 %74, ptr %18, align 4
  br label %52, !llvm.loop !43

75:                                               ; preds = %52
  %76 = load ptr, ptr %21, align 8
  store ptr %76, ptr %11, align 8
  call void @llvm.lifetime.end.p0(i64 8, ptr %21) #6
  br label %144

77:                                               ; preds = %8
  %78 = load ptr, ptr %14, align 8
  %79 = getelementptr inbounds nuw %struct.MessageHeader, ptr %78, i32 0, i32 6
  %80 = load i32, ptr %79, align 8
  switch i32 %80, label %128 [
    i32 0, label %81
    i32 1, label %135
  ]

81:                                               ; preds = %77
  %82 = load ptr, ptr %9, align 8
  %83 = load ptr, ptr %13, align 8
  %84 = load i8, ptr %16, align 1, !range !6, !noundef !7
  %85 = trunc i8 %84 to i1
  %86 = load i32, ptr @boundary, align 4
  %87 = call i32 @get_CDR_ulong(ptr noundef %82, ptr noundef %83, i1 noundef zeroext %85, i32 noundef %86)
  store i32 %87, ptr %19, align 4
  %88 = load ptr, ptr %11, align 8
  %89 = load i32, ptr @hf_GIAS_DataModelMgr_get_associations_return_loop, align 4
  %90 = load ptr, ptr %9, align 8
  %91 = load ptr, ptr %13, align 8
  %92 = load i32, ptr %91, align 4
  %93 = sub i32 %92, 4
  %94 = load i32, ptr %19, align 4
  %95 = call ptr @proto_tree_add_uint(ptr noundef %88, i32 noundef %89, ptr noundef %90, i32 noundef %93, i32 noundef 4, i32 noundef %94)
  call void @llvm.lifetime.start.p0(i64 8, ptr %23) #6
  %96 = load ptr, ptr %11, align 8
  store ptr %96, ptr %23, align 8
  %97 = load ptr, ptr %11, align 8
  %98 = load ptr, ptr %9, align 8
  %99 = load ptr, ptr %13, align 8
  %100 = load i32, ptr %99, align 4
  %101 = load i32, ptr @ett_giop_sequence, align 4
  %102 = call ptr @proto_tree_add_subtree(ptr noundef %97, ptr noundef %98, i32 noundef %100, i32 noundef -1, i32 noundef %101, ptr noundef null, ptr noundef @.str.896)
  store ptr %102, ptr %11, align 8
  store i32 0, ptr %20, align 4
  br label %103

103:                                              ; preds = %123, %81
  %104 = load i32, ptr %20, align 4
  %105 = load i32, ptr %19, align 4
  %106 = icmp ult i32 %104, %105
  br i1 %106, label %107, label %126

107:                                              ; preds = %103
  call void @llvm.lifetime.start.p0(i64 8, ptr %24) #6
  %108 = load ptr, ptr %11, align 8
  %109 = load ptr, ptr %9, align 8
  %110 = load ptr, ptr %13, align 8
  %111 = load i32, ptr %110, align 4
  %112 = load i32, ptr @ett_giop_struct, align 4
  %113 = call ptr @proto_tree_add_subtree(ptr noundef %108, ptr noundef %109, i32 noundef %111, i32 noundef -1, i32 noundef %112, ptr noundef null, ptr noundef @.str.897)
  store ptr %113, ptr %24, align 8
  %114 = load ptr, ptr %9, align 8
  %115 = load ptr, ptr %10, align 8
  %116 = load ptr, ptr %24, align 8
  %117 = load ptr, ptr %12, align 8
  %118 = load ptr, ptr %13, align 8
  %119 = load ptr, ptr %14, align 8
  %120 = load ptr, ptr %15, align 8
  %121 = load i8, ptr %16, align 1, !range !6, !noundef !7
  %122 = trunc i8 %121 to i1
  call void @decode_GIAS_Association_st(ptr noundef %114, ptr noundef %115, ptr noundef %116, ptr noundef %117, ptr noundef %118, ptr noundef %119, ptr noundef %120, i1 noundef zeroext %122)
  call void @llvm.lifetime.end.p0(i64 8, ptr %24) #6
  br label %123

123:                                              ; preds = %107
  %124 = load i32, ptr %20, align 4
  %125 = add i32 %124, 1
  store i32 %125, ptr %20, align 4
  br label %103, !llvm.loop !44

126:                                              ; preds = %103
  %127 = load ptr, ptr %23, align 8
  store ptr %127, ptr %11, align 8
  call void @llvm.lifetime.end.p0(i64 8, ptr %23) #6
  br label %135

128:                                              ; preds = %77
  %129 = load ptr, ptr %10, align 8
  %130 = load ptr, ptr %12, align 8
  %131 = load ptr, ptr %14, align 8
  %132 = getelementptr inbounds nuw %struct.MessageHeader, ptr %131, i32 0, i32 6
  %133 = load i32, ptr %132, align 8
  %134 = call ptr (ptr, ptr, ptr, ptr, ...) @expert_add_info_format(ptr noundef %129, ptr noundef %130, ptr noundef @ei_gias_unknown_exception, ptr noundef @.str.826, i32 noundef %133)
  br label %135

135:                                              ; preds = %128, %77, %126
  br label %144

136:                                              ; preds = %8
  %137 = load ptr, ptr %10, align 8
  %138 = load ptr, ptr %12, align 8
  %139 = load ptr, ptr %14, align 8
  %140 = getelementptr inbounds nuw %struct.MessageHeader, ptr %139, i32 0, i32 3
  %141 = load i8, ptr %140, align 1
  %142 = zext i8 %141 to i32
  %143 = call ptr (ptr, ptr, ptr, ptr, ...) @expert_add_info_format(ptr noundef %137, ptr noundef %138, ptr noundef @ei_gias_unknown_giop_msg, ptr noundef @.str.827, i32 noundef %142)
  br label %144

144:                                              ; preds = %136, %135, %75
  call void @llvm.lifetime.end.p0(i64 4, ptr %20) #6
  call void @llvm.lifetime.end.p0(i64 4, ptr %19) #6
  call void @llvm.lifetime.end.p0(i64 4, ptr %18) #6
  call void @llvm.lifetime.end.p0(i64 4, ptr %17) #6
  ret void
}