; Function Attrs: null_pointer_is_valid sspstrong uwtable
define internal fastcc void @decode_GIAS_DataModelMgr_get_associations(ptr noundef %0, ptr noundef %1, ptr noundef %2, ptr noundef %3, ptr noundef %4, ptr noundef %5, i1 noundef zeroext %6) unnamed_addr #0 {
  %8 = getelementptr inbounds nuw i8, ptr %5, i64 7
  %9 = load i8, ptr %8, align 1
  switch i8 %9, label %63 [
    i8 0, label %10
    i8 1, label %24
  ]

10:                                               ; preds = %7
  %11 = tail call i32 @get_CDR_ulong(ptr noundef %0, ptr noundef %4, i1 noundef zeroext %6, i32 noundef 12)
  %12 = load i32, ptr @hf_GIAS_DataModelMgr_get_associations_properties_loop, align 4
  %13 = load i32, ptr %4, align 4
  %14 = add i32 %13, -4
  %15 = tail call ptr @proto_tree_add_uint(ptr noundef %2, i32 noundef %12, ptr noundef %0, i32 noundef %14, i32 noundef 4, i32 noundef %11)
  %16 = load i32, ptr %4, align 4
  %17 = load i32, ptr @ett_giop_sequence, align 4
  %18 = tail call ptr @proto_tree_add_subtree(ptr noundef %2, ptr noundef %0, i32 noundef %16, i32 noundef -1, i32 noundef %17, ptr noundef null, ptr noundef nonnull @.str.895)
  %.not5 = icmp eq i32 %11, 0
  br i1 %.not5, label %.loopexit, label %.lr.ph4

.lr.ph4:                                          ; preds = %10, %.lr.ph4
  %.03 = phi i32 [ %23, %.lr.ph4 ], [ 0, %10 ]
  %19 = load i32, ptr %4, align 4
  %20 = load i32, ptr @ett_giop_struct, align 4
  %21 = tail call ptr @proto_tree_add_subtree(ptr noundef %18, ptr noundef %0, i32 noundef %19, i32 noundef -1, i32 noundef %20, ptr noundef null, ptr noundef nonnull @.str.855)
  %22 = load i32, ptr @hf_UCO_NameValue_aname, align 4
  tail call void @giop_add_CDR_string(ptr noundef %21, ptr noundef %0, ptr noundef %4, i1 noundef zeroext %6, i32 noundef 12, i32 noundef %22)
  tail call void @get_CDR_any(ptr noundef %0, ptr noundef %1, ptr noundef %21, ptr noundef %3, ptr noundef %4, i1 noundef zeroext %6, i32 noundef 12, ptr noundef %5)
  %23 = add nuw i32 %.03, 1
  %exitcond7.not = icmp eq i32 %23, %11
  br i1 %exitcond7.not, label %.loopexit, label %.lr.ph4, !llvm.loop !43

24:                                               ; preds = %7
  %25 = getelementptr inbounds nuw i8, ptr %5, i64 16
  %26 = load i32, ptr %25, align 8
  switch i32 %26, label %61 [
    i32 0, label %27
    i32 1, label %.loopexit
  ]

27:                                               ; preds = %24
  %28 = tail call i32 @get_CDR_ulong(ptr noundef %0, ptr noundef %4, i1 noundef zeroext %6, i32 noundef 12)
  %29 = load i32, ptr @hf_GIAS_DataModelMgr_get_associations_return_loop, align 4
  %30 = load i32, ptr %4, align 4
  %31 = add i32 %30, -4
  %32 = tail call ptr @proto_tree_add_uint(ptr noundef %2, i32 noundef %29, ptr noundef %0, i32 noundef %31, i32 noundef 4, i32 noundef %28)
  %33 = load i32, ptr %4, align 4
  %34 = load i32, ptr @ett_giop_sequence, align 4
  %35 = tail call ptr @proto_tree_add_subtree(ptr noundef %2, ptr noundef %0, i32 noundef %33, i32 noundef -1, i32 noundef %34, ptr noundef null, ptr noundef nonnull @.str.896)
  %.not = icmp eq i32 %28, 0
  br i1 %.not, label %.loopexit, label %.lr.ph

.lr.ph:                                           ; preds = %27, %decode_GIAS_Association_st.exit
  %.0592 = phi i32 [ %60, %decode_GIAS_Association_st.exit ], [ 0, %27 ]
  %36 = load i32, ptr %4, align 4
  %37 = load i32, ptr @ett_giop_struct, align 4
  %38 = tail call ptr @proto_tree_add_subtree(ptr noundef %35, ptr noundef %0, i32 noundef %36, i32 noundef -1, i32 noundef %37, ptr noundef null, ptr noundef nonnull @.str.897)
  %39 = load i32, ptr @hf_GIAS_Association_name, align 4
  tail call void @giop_add_CDR_string(ptr noundef %38, ptr noundef %0, ptr noundef %4, i1 noundef zeroext %6, i32 noundef 12, i32 noundef %39)
  %40 = load i32, ptr @hf_GIAS_Association_view_a, align 4
  tail call void @giop_add_CDR_string(ptr noundef %38, ptr noundef %0, ptr noundef %4, i1 noundef zeroext %6, i32 noundef 12, i32 noundef %40)
  %41 = load i32, ptr @hf_GIAS_Association_view_b, align 4
  tail call void @giop_add_CDR_string(ptr noundef %38, ptr noundef %0, ptr noundef %4, i1 noundef zeroext %6, i32 noundef 12, i32 noundef %41)
  %42 = load i32, ptr @hf_GIAS_Association_description, align 4
  tail call void @giop_add_CDR_string(ptr noundef %38, ptr noundef %0, ptr noundef %4, i1 noundef zeroext %6, i32 noundef 12, i32 noundef %42)
  %43 = tail call i32 @get_CDR_enum(ptr noundef %0, ptr noundef %4, i1 noundef zeroext %6, i32 noundef 12)
  %44 = load i32, ptr @hf_GIAS_Association_card, align 4
  %45 = load i32, ptr %4, align 4
  %46 = add i32 %45, -4
  %47 = tail call ptr @proto_tree_add_uint(ptr noundef %38, i32 noundef %44, ptr noundef %0, i32 noundef %46, i32 noundef 4, i32 noundef %43)
  %48 = tail call i32 @get_CDR_ulong(ptr noundef %0, ptr noundef %4, i1 noundef zeroext %6, i32 noundef 12)
  %49 = load i32, ptr @hf_GIAS_Association_attribute_info_loop, align 4
  %50 = load i32, ptr %4, align 4
  %51 = add i32 %50, -4
  %52 = tail call ptr @proto_tree_add_uint(ptr noundef %38, i32 noundef %49, ptr noundef %0, i32 noundef %51, i32 noundef 4, i32 noundef %48)
  %53 = load i32, ptr %4, align 4
  %54 = load i32, ptr @ett_giop_sequence, align 4
  %55 = tail call ptr @proto_tree_add_subtree(ptr noundef %38, ptr noundef %0, i32 noundef %53, i32 noundef -1, i32 noundef %54, ptr noundef null, ptr noundef nonnull @.str.898)
  %.not.i = icmp eq i32 %48, 0
  br i1 %.not.i, label %decode_GIAS_Association_st.exit, label %.lr.ph.i

.lr.ph.i:                                         ; preds = %.lr.ph, %.lr.ph.i
  %.01.i = phi i32 [ %59, %.lr.ph.i ], [ 0, %.lr.ph ]
  %56 = load i32, ptr %4, align 4
  %57 = load i32, ptr @ett_giop_struct, align 4
  %58 = tail call ptr @proto_tree_add_subtree(ptr noundef %55, ptr noundef %0, i32 noundef %56, i32 noundef -1, i32 noundef %57, ptr noundef null, ptr noundef nonnull @.str.899)
  tail call fastcc void @decode_GIAS_AttributeInformation_st(ptr noundef %0, ptr noundef readonly %1, ptr noundef %58, ptr noundef %4, i1 noundef zeroext %6)
  %59 = add nuw i32 %.01.i, 1
  %exitcond.not.i = icmp eq i32 %59, %48
  br i1 %exitcond.not.i, label %decode_GIAS_Association_st.exit, label %.lr.ph.i, !llvm.loop !44

decode_GIAS_Association_st.exit:                  ; preds = %.lr.ph.i, %.lr.ph
  %60 = add nuw i32 %.0592, 1
  %exitcond.not = icmp eq i32 %60, %28
  br i1 %exitcond.not, label %.loopexit, label %.lr.ph, !llvm.loop !45

61:                                               ; preds = %24
  %62 = tail call ptr (ptr, ptr, ptr, ptr, ...) @expert_add_info_format(ptr noundef %1, ptr noundef %3, ptr noundef nonnull @ei_gias_unknown_exception, ptr noundef nonnull @.str.826, i32 noundef %26)
  br label %.loopexit

63:                                               ; preds = %7
  %64 = zext i8 %9 to i32
  %65 = tail call ptr (ptr, ptr, ptr, ptr, ...) @expert_add_info_format(ptr noundef %1, ptr noundef %3, ptr noundef nonnull @ei_gias_unknown_giop_msg, ptr noundef nonnull @.str.827, i32 noundef %64)
  br label %.loopexit

.loopexit:                                        ; preds = %decode_GIAS_Association_st.exit, %.lr.ph4, %27, %10, %24, %61, %63
  ret void
}